ARM GAS  C:\Users\budai\AppData\Local\Temp\ccF80kxN.s 			page 1


   1              		.syntax unified
   2              		.cpu cortex-m3
   3              		.fpu softvfp
   4              		.eabi_attribute 20, 1
   5              		.eabi_attribute 21, 1
   6              		.eabi_attribute 23, 3
   7              		.eabi_attribute 24, 1
   8              		.eabi_attribute 25, 1
   9              		.eabi_attribute 26, 1
  10              		.eabi_attribute 30, 1
  11              		.eabi_attribute 34, 1
  12              		.eabi_attribute 18, 4
  13              		.thumb
  14              		.syntax unified
  15              		.file	"main.c"
  16              		.text
  17              	.Ltext0:
  18              		.cfi_sections	.debug_frame
  19              		.section	.text.setSpeeds,"ax",%progbits
  20              		.align	2
  21              		.global	setSpeeds
  22              		.thumb
  23              		.thumb_func
  24              		.type	setSpeeds, %function
  25              	setSpeeds:
  26              	.LFB63:
  27              		.file 1 "main.c"
   1:main.c        **** /* ========================================
   2:main.c        ****  *
   3:main.c        ****  * Copyright YOUR COMPANY, THE YEAR
   4:main.c        ****  * All Rights Reserved
   5:main.c        ****  * UNPUBLISHED, LICENSED SOFTWARE.
   6:main.c        ****  *
   7:main.c        ****  * CONFIDENTIAL AND PROPRIETARY INFORMATION
   8:main.c        ****  * WHICH IS THE PROPERTY OF your company.
   9:main.c        ****  *
  10:main.c        ****  * ========================================
  11:main.c        **** */
  12:main.c        **** #include "project.h"
  13:main.c        **** 
  14:main.c        **** 
  15:main.c        **** typedef enum 
  16:main.c        **** {
  17:main.c        ****  go_straight,
  18:main.c        ****  turn_left,
  19:main.c        ****  turn_right,
  20:main.c        ****  seek_line,
  21:main.c        ****  none
  22:main.c        **** } states; 
  23:main.c        **** 
  24:main.c        **** 
  25:main.c        **** 
  26:main.c        **** 
  27:main.c        **** void setSpeeds(int16 left, int16 right){ 
  28              		.loc 1 27 0
  29              		.cfi_startproc
  30              		@ args = 0, pretend = 0, frame = 0
ARM GAS  C:\Users\budai\AppData\Local\Temp\ccF80kxN.s 			page 2


  31              		@ frame_needed = 0, uses_anonymous_args = 0
  32              	.LVL0:
  33 0000 38B5     		push	{r3, r4, r5, lr}
  34              		.cfi_def_cfa_offset 16
  35              		.cfi_offset 3, -16
  36              		.cfi_offset 4, -12
  37              		.cfi_offset 5, -8
  38              		.cfi_offset 14, -4
  39 0002 0C46     		mov	r4, r1
  40              	.LVL1:
  28:main.c        **** //start of function________________________________________________________________________________
  29:main.c        **** int8 killControl=0;    
  30:main.c        ****     
  31:main.c        **** if (left<0){
  41              		.loc 1 31 0
  42 0004 051E     		subs	r5, r0, #0
  43 0006 07DA     		bge	.L2
  32:main.c        ****     Left_Motor_PWM_WriteCompare(-1*left);
  44              		.loc 1 32 0
  45 0008 6842     		negs	r0, r5
  46              	.LVL2:
  47 000a C0B2     		uxtb	r0, r0
  48 000c FFF7FEFF 		bl	Left_Motor_PWM_WriteCompare
  49              	.LVL3:
  33:main.c        ****     Left_Motor_DIR_Write(1);
  50              		.loc 1 33 0
  51 0010 0120     		movs	r0, #1
  52 0012 FFF7FEFF 		bl	Left_Motor_DIR_Write
  53              	.LVL4:
  54 0016 05E0     		b	.L3
  55              	.LVL5:
  56              	.L2:
  34:main.c        **** }else{
  35:main.c        ****     Left_Motor_PWM_WriteCompare(left);
  57              		.loc 1 35 0
  58 0018 E8B2     		uxtb	r0, r5
  59              	.LVL6:
  60 001a FFF7FEFF 		bl	Left_Motor_PWM_WriteCompare
  61              	.LVL7:
  36:main.c        ****     Left_Motor_DIR_Write(0);
  62              		.loc 1 36 0
  63 001e 0020     		movs	r0, #0
  64 0020 FFF7FEFF 		bl	Left_Motor_DIR_Write
  65              	.LVL8:
  66              	.L3:
  37:main.c        ****     }
  38:main.c        **** 
  39:main.c        **** 
  40:main.c        **** if (right<0){
  67              		.loc 1 40 0
  68 0024 002C     		cmp	r4, #0
  69 0026 07DA     		bge	.L4
  41:main.c        ****     Right_Motor_PWM_WriteCompare(-1*right);
  70              		.loc 1 41 0
  71 0028 6042     		negs	r0, r4
  72 002a C0B2     		uxtb	r0, r0
  73 002c FFF7FEFF 		bl	Right_Motor_PWM_WriteCompare
ARM GAS  C:\Users\budai\AppData\Local\Temp\ccF80kxN.s 			page 3


  74              	.LVL9:
  42:main.c        ****     Right_Motor_DIR_Write(1);
  75              		.loc 1 42 0
  76 0030 0120     		movs	r0, #1
  77 0032 FFF7FEFF 		bl	Right_Motor_DIR_Write
  78              	.LVL10:
  79 0036 05E0     		b	.L5
  80              	.L4:
  43:main.c        **** }else{
  44:main.c        ****     Right_Motor_PWM_WriteCompare(right);
  81              		.loc 1 44 0
  82 0038 E0B2     		uxtb	r0, r4
  83 003a FFF7FEFF 		bl	Right_Motor_PWM_WriteCompare
  84              	.LVL11:
  45:main.c        ****     Right_Motor_DIR_Write(0);
  85              		.loc 1 45 0
  86 003e 0020     		movs	r0, #0
  87 0040 FFF7FEFF 		bl	Right_Motor_DIR_Write
  88              	.LVL12:
  89              	.L5:
  46:main.c        ****     }
  47:main.c        **** 
  48:main.c        **** 
  49:main.c        **** if (left==0){
  90              		.loc 1 49 0
  91 0044 0DB1     		cbz	r5, .L8
  29:main.c        ****     
  92              		.loc 1 29 0
  93 0046 0020     		movs	r0, #0
  94 0048 00E0     		b	.L6
  95              	.L8:
  50:main.c        ****     killControl=1;
  96              		.loc 1 50 0
  97 004a 0120     		movs	r0, #1
  98              	.L6:
  99              	.LVL13:
  51:main.c        ****     }
  52:main.c        ****     
  53:main.c        **** if (right==0){
 100              		.loc 1 53 0
 101 004c 0CB9     		cbnz	r4, .L7
  54:main.c        ****    
  55:main.c        ****      killControl=killControl+2;
 102              		.loc 1 55 0
 103 004e 0230     		adds	r0, r0, #2
 104              	.LVL14:
 105 0050 40B2     		sxtb	r0, r0
 106              	.LVL15:
 107              	.L7:
  56:main.c        ****     }
  57:main.c        ****     
  58:main.c        ****     Reg_PWM_Enable_Write(killControl);
 108              		.loc 1 58 0
 109 0052 C0B2     		uxtb	r0, r0
 110 0054 FFF7FEFF 		bl	Reg_PWM_Enable_Write
 111              	.LVL16:
 112 0058 38BD     		pop	{r3, r4, r5, pc}
ARM GAS  C:\Users\budai\AppData\Local\Temp\ccF80kxN.s 			page 4


 113              		.cfi_endproc
 114              	.LFE63:
 115              		.size	setSpeeds, .-setSpeeds
 116 005a 00BF     		.section	.text.main,"ax",%progbits
 117              		.align	2
 118              		.global	main
 119              		.thumb
 120              		.thumb_func
 121              		.type	main, %function
 122              	main:
 123              	.LFB64:
  59:main.c        **** 
  60:main.c        **** 
  61:main.c        **** 
  62:main.c        ****  // end of function________________________________________________________________________________
  63:main.c        **** };
  64:main.c        **** 
  65:main.c        **** 
  66:main.c        **** 
  67:main.c        **** 
  68:main.c        **** int main(void)
  69:main.c        **** {
 124              		.loc 1 69 0
 125              		.cfi_startproc
 126              		@ args = 0, pretend = 0, frame = 0
 127              		@ frame_needed = 0, uses_anonymous_args = 0
 128 0000 10B5     		push	{r4, lr}
 129              		.cfi_def_cfa_offset 8
 130              		.cfi_offset 4, -8
 131              		.cfi_offset 14, -4
  70:main.c        ****     CyGlobalIntEnable; /* Enable global interrupts. */
 132              		.loc 1 70 0
 133              		.syntax unified
 134              	@ 70 "main.c" 1
 135 0002 62B6     		CPSIE   i
 136              	@ 0 "" 2
  71:main.c        **** 
  72:main.c        ****     Left_Motor_PWM_Start();
 137              		.loc 1 72 0
 138              		.thumb
 139              		.syntax unified
 140 0004 FFF7FEFF 		bl	Left_Motor_PWM_Start
 141              	.LVL17:
  73:main.c        ****     Right_Motor_PWM_Start();
 142              		.loc 1 73 0
 143 0008 FFF7FEFF 		bl	Right_Motor_PWM_Start
 144              	.LVL18:
  74:main.c        ****     setSpeeds(0,0);
 145              		.loc 1 74 0
 146 000c 0021     		movs	r1, #0
 147 000e 0846     		mov	r0, r1
 148 0010 FFF7FEFF 		bl	setSpeeds
 149              	.LVL19:
  75:main.c        ****     
  76:main.c        ****  states state = go_straight;
 150              		.loc 1 76 0
 151 0014 0024     		movs	r4, #0
ARM GAS  C:\Users\budai\AppData\Local\Temp\ccF80kxN.s 			page 5


 152              	.LVL20:
 153              	.L11:
  77:main.c        ****     
  78:main.c        ****     /* Place your initialization/startup code here (e.g. MyInst_Start()) */
  79:main.c        ****     
  80:main.c        ****     for(;;)
  81:main.c        ****     {
  82:main.c        ****     /* Place your application code here. */
  83:main.c        ****        
  84:main.c        ****         
  85:main.c        ****         
  86:main.c        ****         if ((IRL_Read()==0 && IRR_Read()==0) || (IRL_Read()==1 && IRR_Read()==1)){
 154              		.loc 1 86 0
 155 0016 FFF7FEFF 		bl	IRL_Read
 156              	.LVL21:
 157 001a 10B9     		cbnz	r0, .L12
 158              		.loc 1 86 0 is_stmt 0 discriminator 1
 159 001c FFF7FEFF 		bl	IRR_Read
 160              	.LVL22:
 161 0020 40B1     		cbz	r0, .L23
 162              	.L12:
 163              		.loc 1 86 0 discriminator 3
 164 0022 FFF7FEFF 		bl	IRL_Read
 165              	.LVL23:
 166 0026 0128     		cmp	r0, #1
 167 0028 07D1     		bne	.L13
 168              		.loc 1 86 0 discriminator 4
 169 002a FFF7FEFF 		bl	IRR_Read
 170              	.LVL24:
 171 002e 0128     		cmp	r0, #1
 172 0030 03D1     		bne	.L13
 173 0032 01E0     		b	.L24
 174              	.L23:
  87:main.c        ****              state=seek_line;   
 175              		.loc 1 87 0 is_stmt 1
 176 0034 0324     		movs	r4, #3
 177              	.LVL25:
 178 0036 00E0     		b	.L13
 179              	.LVL26:
 180              	.L24:
 181 0038 0324     		movs	r4, #3
 182              	.LVL27:
 183              	.L13:
  88:main.c        ****         }
  89:main.c        ****         if (IRL_Read()==0 && IRR_Read()==1){
 184              		.loc 1 89 0
 185 003a FFF7FEFF 		bl	IRL_Read
 186              	.LVL28:
 187 003e 20B9     		cbnz	r0, .L14
 188              		.loc 1 89 0 is_stmt 0 discriminator 1
 189 0040 FFF7FEFF 		bl	IRR_Read
 190              	.LVL29:
 191 0044 0128     		cmp	r0, #1
 192 0046 00D1     		bne	.L14
  90:main.c        ****             state=turn_left;
 193              		.loc 1 90 0 is_stmt 1
 194 0048 0124     		movs	r4, #1
ARM GAS  C:\Users\budai\AppData\Local\Temp\ccF80kxN.s 			page 6


 195              	.LVL30:
 196              	.L14:
  91:main.c        ****         }
  92:main.c        ****         if (IRL_Read()==1 && IRR_Read()==0){
 197              		.loc 1 92 0
 198 004a FFF7FEFF 		bl	IRL_Read
 199              	.LVL31:
 200 004e 0128     		cmp	r0, #1
 201 0050 03D1     		bne	.L15
 202              		.loc 1 92 0 is_stmt 0 discriminator 1
 203 0052 FFF7FEFF 		bl	IRR_Read
 204              	.LVL32:
 205 0056 00B9     		cbnz	r0, .L15
  93:main.c        ****             state=turn_right;
 206              		.loc 1 93 0 is_stmt 1
 207 0058 0224     		movs	r4, #2
 208              	.LVL33:
 209              	.L15:
  94:main.c        ****         } 
  95:main.c        ****            
  96:main.c        ****         switch (state) {
 210              		.loc 1 96 0
 211 005a 032C     		cmp	r4, #3
 212 005c 17D8     		bhi	.L16
 213 005e DFE804F0 		tbb	[pc, r4]
 214              	.L18:
 215 0062 02       		.byte	(.L17-.L18)/2
 216 0063 07       		.byte	(.L19-.L18)/2
 217 0064 0C       		.byte	(.L20-.L18)/2
 218 0065 11       		.byte	(.L21-.L18)/2
 219              		.p2align 1
 220              	.L17:
  97:main.c        ****     case go_straight:
  98:main.c        ****         setSpeeds(100,150);
 221              		.loc 1 98 0
 222 0066 9621     		movs	r1, #150
 223 0068 6420     		movs	r0, #100
 224 006a FFF7FEFF 		bl	setSpeeds
 225              	.LVL34:
  99:main.c        ****         break;
 226              		.loc 1 99 0
 227 006e D2E7     		b	.L11
 228              	.L19:
 100:main.c        ****     case turn_left:
 101:main.c        ****         setSpeeds(30,150);
 229              		.loc 1 101 0
 230 0070 9621     		movs	r1, #150
 231 0072 1E20     		movs	r0, #30
 232 0074 FFF7FEFF 		bl	setSpeeds
 233              	.LVL35:
 102:main.c        ****         break;
 234              		.loc 1 102 0
 235 0078 CDE7     		b	.L11
 236              	.L20:
 103:main.c        ****     case turn_right:
 104:main.c        ****         setSpeeds(150,30);
 237              		.loc 1 104 0
ARM GAS  C:\Users\budai\AppData\Local\Temp\ccF80kxN.s 			page 7


 238 007a 1E21     		movs	r1, #30
 239 007c 9620     		movs	r0, #150
 240 007e FFF7FEFF 		bl	setSpeeds
 241              	.LVL36:
 105:main.c        ****         break;
 242              		.loc 1 105 0
 243 0082 C8E7     		b	.L11
 244              	.L21:
 106:main.c        ****     case seek_line:
 107:main.c        ****        setSpeeds(150,50);
 245              		.loc 1 107 0
 246 0084 3221     		movs	r1, #50
 247 0086 9620     		movs	r0, #150
 248 0088 FFF7FEFF 		bl	setSpeeds
 249              	.LVL37:
 108:main.c        ****         break;
 250              		.loc 1 108 0
 251 008c C3E7     		b	.L11
 252              	.L16:
 109:main.c        ****     default:
 110:main.c        ****         setSpeeds(0,0);
 253              		.loc 1 110 0
 254 008e 0021     		movs	r1, #0
 255 0090 0846     		mov	r0, r1
 256 0092 FFF7FEFF 		bl	setSpeeds
 257              	.LVL38:
 258 0096 BEE7     		b	.L11
 259              		.cfi_endproc
 260              	.LFE64:
 261              		.size	main, .-main
 262              		.text
 263              	.Letext0:
 264              		.file 2 "c:\\program files (x86)\\cypress\\psoc creator\\4.2\\psoc creator\\import\\gnu\\arm\\5.4.
 265              		.file 3 "c:\\program files (x86)\\cypress\\psoc creator\\4.2\\psoc creator\\import\\gnu\\arm\\5.4.
 266              		.file 4 "Generated_Source\\PSoC5/cytypes.h"
 267              		.file 5 "Generated_Source\\PSoC5/Left_Motor_PWM.h"
 268              		.file 6 "Generated_Source\\PSoC5/Left_Motor_DIR.h"
 269              		.file 7 "Generated_Source\\PSoC5/Right_Motor_PWM.h"
 270              		.file 8 "Generated_Source\\PSoC5/Right_Motor_DIR.h"
 271              		.file 9 "Generated_Source\\PSoC5/Reg_PWM_Enable.h"
 272              		.file 10 "Generated_Source\\PSoC5/IRL.h"
 273              		.file 11 "Generated_Source\\PSoC5/IRR.h"
 274              		.file 12 "Generated_Source\\PSoC5/core_cm3.h"